target datalayout = "e-m:e-p270:32:32-p271:32:32-p272:64:64-i64:64-i128:128-f80:128-n8:16:32:64-S128"
target triple = "x86_64-pc-linux-gnu"

%struct.bf_key_st = type { [18 x i32], [1024 x i32] }

@cbc_key = internal global [16 x i8] c"\01#Eg\89\AB\CD\EF\F0\E1\D2\C3\B4\A5\96\87", align 16
@cbc_iv = internal global [8 x i8] c"\FE\DC\BA\98vT2\10", align 1
@cbc_data = internal global [40 x i8] c"7654321 Now is the time for \00\00\00\00\00\00\00\00\00\00\00\00", align 16
@ofb64_ok = internal global [29 x i8] c"\E72\14\A2\82!9\CAb\B3C\CC[eXs\10\DD\90\8D\0C$\1B\22c\C2\CF\80\DA", align 16
@.str.40 = private unnamed_addr constant [25 x i8] c"../openssl/test/bftest.c\00", align 1
@.str.48 = private unnamed_addr constant [8 x i8] c"cbc_out\00", align 1
@.str.50 = private unnamed_addr constant [7 x i8] c"cbc_in\00", align 1
@.str.51 = private unnamed_addr constant [9 x i8] c"cbc_data\00", align 1
@.str.53 = private unnamed_addr constant [9 x i8] c"ofb64_ok\00", align 1

; Function Attrs: nounwind uwtable
define internal i32 @test_bf_ofb64() #0 {
  %1 = alloca [40 x i8], align 16
  %2 = alloca [40 x i8], align 16
  %3 = alloca [8 x i8], align 1
  %4 = alloca i32, align 4
  %5 = alloca i32, align 4
  %6 = alloca %struct.bf_key_st, align 4
  %7 = alloca i32, align 4
  call void @llvm.lifetime.start.p0(i64 40, ptr %1) #6
  call void @llvm.lifetime.start.p0(i64 40, ptr %2) #6
  call void @llvm.lifetime.start.p0(i64 8, ptr %3) #6
  call void @llvm.lifetime.start.p0(i64 4, ptr %4) #6
  call void @llvm.lifetime.start.p0(i64 4, ptr %5) #6
  store i32 1, ptr %5, align 4, !tbaa !4
  call void @llvm.lifetime.start.p0(i64 4168, ptr %6) #6
  call void @llvm.lifetime.start.p0(i64 4, ptr %7) #6
  %8 = call i64 @strlen(ptr noundef @cbc_data) #7
  %9 = add i64 %8, 1
  %10 = trunc i64 %9 to i32
  store i32 %10, ptr %7, align 4, !tbaa !4
  call void @BF_set_key(ptr noundef %6, i32 noundef 16, ptr noundef @cbc_key)
  %11 = getelementptr inbounds [40 x i8], ptr %1, i64 0, i64 0
  call void @llvm.memset.p0.i64(ptr align 16 %11, i8 0, i64 40, i1 false)
  %12 = getelementptr inbounds [40 x i8], ptr %2, i64 0, i64 0
  call void @llvm.memset.p0.i64(ptr align 16 %12, i8 0, i64 40, i1 false)
  %13 = getelementptr inbounds [8 x i8], ptr %3, i64 0, i64 0
  call void @llvm.memcpy.p0.p0.i64(ptr align 1 %13, ptr align 1 @cbc_iv, i64 8, i1 false)
  store i32 0, ptr %4, align 4, !tbaa !4
  %14 = getelementptr inbounds [40 x i8], ptr %2, i64 0, i64 0
  %15 = getelementptr inbounds [8 x i8], ptr %3, i64 0, i64 0
  call void @BF_ofb64_encrypt(ptr noundef @cbc_data, ptr noundef %14, i64 noundef 13, ptr noundef %6, ptr noundef %15, ptr noundef %4)
  %16 = getelementptr inbounds [40 x i8], ptr %2, i64 0, i64 13
  %17 = load i32, ptr %7, align 4, !tbaa !4
  %18 = sub i32 %17, 13
  %19 = zext i32 %18 to i64
  %20 = getelementptr inbounds [8 x i8], ptr %3, i64 0, i64 0
  call void @BF_ofb64_encrypt(ptr noundef getelementptr inbounds ([40 x i8], ptr @cbc_data, i64 0, i64 13), ptr noundef %16, i64 noundef %19, ptr noundef %6, ptr noundef %20, ptr noundef %4)
  %21 = getelementptr inbounds [40 x i8], ptr %2, i64 0, i64 0
  %22 = load i32, ptr %7, align 4, !tbaa !4
  %23 = sext i32 %22 to i64
  %24 = load i32, ptr %7, align 4, !tbaa !4
  %25 = sext i32 %24 to i64
  %26 = call i32 @test_mem_eq(ptr noundef @.str.40, i32 noundef 426, ptr noundef @.str.48, ptr noundef @.str.53, ptr noundef %21, i64 noundef %23, ptr noundef @ofb64_ok, i64 noundef %25)
  %27 = icmp ne i32 %26, 0
  br i1 %27, label %29, label %28

28:                                               ; preds = %0
  store i32 0, ptr %5, align 4, !tbaa !4
  br label %29

29:                                               ; preds = %28, %0
  store i32 0, ptr %4, align 4, !tbaa !4
  %30 = getelementptr inbounds [8 x i8], ptr %3, i64 0, i64 0
  call void @llvm.memcpy.p0.p0.i64(ptr align 1 %30, ptr align 1 @cbc_iv, i64 8, i1 false)
  %31 = getelementptr inbounds [40 x i8], ptr %2, i64 0, i64 0
  %32 = getelementptr inbounds [40 x i8], ptr %1, i64 0, i64 0
  %33 = getelementptr inbounds [8 x i8], ptr %3, i64 0, i64 0
  call void @BF_ofb64_encrypt(ptr noundef %31, ptr noundef %32, i64 noundef 17, ptr noundef %6, ptr noundef %33, ptr noundef %4)
  %34 = getelementptr inbounds [40 x i8], ptr %2, i64 0, i64 17
  %35 = getelementptr inbounds [40 x i8], ptr %1, i64 0, i64 17
  %36 = load i32, ptr %7, align 4, !tbaa !4
  %37 = sub i32 %36, 17
  %38 = zext i32 %37 to i64
  %39 = getelementptr inbounds [8 x i8], ptr %3, i64 0, i64 0
  call void @BF_ofb64_encrypt(ptr noundef %34, ptr noundef %35, i64 noundef %38, ptr noundef %6, ptr noundef %39, ptr noundef %4)
  %40 = getelementptr inbounds [40 x i8], ptr %1, i64 0, i64 0
  %41 = load i32, ptr %7, align 4, !tbaa !4
  %42 = sext i32 %41 to i64
  %43 = load i32, ptr %7, align 4, !tbaa !4
  %44 = sext i32 %43 to i64
  %45 = call i32 @test_mem_eq(ptr noundef @.str.40, i32 noundef 433, ptr noundef @.str.50, ptr noundef @.str.51, ptr noundef %40, i64 noundef %42, ptr noundef @cbc_data, i64 noundef %44)
  %46 = icmp ne i32 %45, 0
  br i1 %46, label %48, label %47

47:                                               ; preds = %29
  store i32 0, ptr %5, align 4, !tbaa !4
  br label %48

48:                                               ; preds = %47, %29
  %49 = load i32, ptr %5, align 4, !tbaa !4
  call void @llvm.lifetime.end.p0(i64 4, ptr %7) #6
  call void @llvm.lifetime.end.p0(i64 4168, ptr %6) #6
  call void @llvm.lifetime.end.p0(i64 4, ptr %5) #6
  call void @llvm.lifetime.end.p0(i64 4, ptr %4) #6
  call void @llvm.lifetime.end.p0(i64 8, ptr %3) #6
  call void @llvm.lifetime.end.p0(i64 40, ptr %2) #6
  call void @llvm.lifetime.end.p0(i64 40, ptr %1) #6
  ret i32 %49
}